target datalayout = "e-m:e-p270:32:32-p271:32:32-p272:64:64-i64:64-i128:128-f80:128-n8:16:32:64-S128"
target triple = "x86_64-pc-linux-gnu"

%struct._tcp_scan_t = type { i32, ptr, ptr }
%struct._GString = type { ptr, i64, i64 }

@.str = private unnamed_addr constant [4 x i8] c"tcp\00", align 1
@stderr = external global ptr, align 8
@.str.1 = private unnamed_addr constant [48 x i8] c"wireshark: Couldn't register tcp_graph tap: %s\0A\00", align 1

; Function Attrs: null_pointer_is_valid sspstrong uwtable
define hidden void @graph_segment_list_get(ptr noundef %0, ptr noundef %1) #0 {
  %3 = alloca ptr, align 8
  %4 = alloca ptr, align 8
  %5 = alloca ptr, align 8
  %6 = alloca %struct._tcp_scan_t, align 8
  %7 = alloca i32, align 4
  store ptr %0, ptr %3, align 8
  store ptr %1, ptr %4, align 8
  call void @llvm.lifetime.start.p0(i64 8, ptr %5) #17
  call void @llvm.lifetime.start.p0(i64 24, ptr %6) #17
  %8 = load ptr, ptr %3, align 8
  %9 = icmp ne ptr %8, null
  br i1 %9, label %10, label %13

10:                                               ; preds = %2
  %11 = load ptr, ptr %4, align 8
  %12 = icmp ne ptr %11, null
  br i1 %12, label %14, label %13

13:                                               ; preds = %10, %2
  store i32 1, ptr %7, align 4
  br label %33

14:                                               ; preds = %10
  %15 = getelementptr inbounds nuw %struct._tcp_scan_t, ptr %6, i32 0, i32 0
  store i32 1, ptr %15, align 8
  %16 = load ptr, ptr %4, align 8
  %17 = getelementptr inbounds nuw %struct._tcp_scan_t, ptr %6, i32 0, i32 1
  store ptr %16, ptr %17, align 8
  %18 = getelementptr inbounds nuw %struct._tcp_scan_t, ptr %6, i32 0, i32 2
  store ptr null, ptr %18, align 8
  %19 = call ptr @register_tap_listener(ptr noundef @.str, ptr noundef %6, ptr noundef @.str, i32 noundef 0, ptr noundef null, ptr noundef @tapall_tcpip_packet, ptr noundef null, ptr noundef null)
  store ptr %19, ptr %5, align 8
  %20 = load ptr, ptr %5, align 8
  %21 = icmp ne ptr %20, null
  br i1 %21, label %22, label %30

22:                                               ; preds = %14
  %23 = load ptr, ptr @stderr, align 8
  %24 = load ptr, ptr %5, align 8
  %25 = getelementptr inbounds nuw %struct._GString, ptr %24, i32 0, i32 0
  %26 = load ptr, ptr %25, align 8
  %27 = call i32 (ptr, i32, ptr, ...) @__fprintf_chk(ptr noundef %23, i32 noundef 2, ptr noundef @.str.1, ptr noundef %26)
  %28 = load ptr, ptr %5, align 8
  %29 = call ptr @g_string_free(ptr noundef %28, i32 noundef 1)
  call void @exit(i32 noundef 1) #18
  unreachable

30:                                               ; preds = %14
  %31 = load ptr, ptr %3, align 8
  %32 = call i32 @cf_retap_packets(ptr noundef %31)
  call void @remove_tap_listener(ptr noundef %6)
  store i32 0, ptr %7, align 4
  br label %33

33:                                               ; preds = %30, %13
  call void @llvm.lifetime.end.p0(i64 24, ptr %6) #17
  call void @llvm.lifetime.end.p0(i64 8, ptr %5) #17
  %34 = load i32, ptr %7, align 4
  switch i32 %34, label %36 [
    i32 0, label %35
    i32 1, label %35
  ]

35:                                               ; preds = %33, %33
  ret void

36:                                               ; preds = %33
  unreachable
}