; Function Attrs: null_pointer_is_valid sspstrong uwtable
define hidden void @graph_segment_list_get(ptr noundef %0, ptr noundef %1) local_unnamed_addr #0 {
  %3 = alloca %struct._tcp_scan_t, align 8
  call void @llvm.lifetime.start.p0(i64 24, ptr nonnull %3) #15
  %4 = icmp ne ptr %0, null
  %5 = icmp ne ptr %1, null
  %or.cond = and i1 %4, %5
  br i1 %or.cond, label %6, label %17

6:                                                ; preds = %2
  store i32 1, ptr %3, align 8
  %7 = getelementptr inbounds nuw i8, ptr %3, i64 8
  store ptr %1, ptr %7, align 8
  %8 = getelementptr inbounds nuw i8, ptr %3, i64 16
  store ptr null, ptr %8, align 8
  %9 = call ptr @register_tap_listener(ptr noundef nonnull @.str, ptr noundef nonnull %3, ptr noundef nonnull @.str, i32 noundef 0, ptr noundef null, ptr noundef nonnull @tapall_tcpip_packet, ptr noundef null, ptr noundef null)
  %.not = icmp eq ptr %9, null
  br i1 %.not, label %15, label %10

10:                                               ; preds = %6
  %11 = load ptr, ptr @stderr, align 8
  %12 = load ptr, ptr %9, align 8
  %13 = call i32 (ptr, i32, ptr, ...) @__fprintf_chk(ptr noundef %11, i32 noundef 2, ptr noundef nonnull @.str.1, ptr noundef %12)
  %14 = call ptr @g_string_free(ptr noundef nonnull %9, i32 noundef 1)
  call void @exit(i32 noundef 1) #16
  unreachable

15:                                               ; preds = %6
  %16 = call i32 @cf_retap_packets(ptr noundef nonnull %0)
  call void @remove_tap_listener(ptr noundef nonnull %3)
  br label %17

17:                                               ; preds = %2, %15
  call void @llvm.lifetime.end.p0(i64 24, ptr nonnull %3) #15
  ret void
}